target datalayout = "e-m:e-p270:32:32-p271:32:32-p272:64:64-i64:64-i128:128-f80:128-n8:16:32:64-S128"
target triple = "x86_64-pc-linux-gnu"

%"struct.arrow::ArraySpan" = type { ptr, i64, i64, i64, [3 x %"struct.arrow::BufferSpan"], %"class.std::vector.34" }
%"struct.arrow::BufferSpan" = type { ptr, i64, ptr }
%"class.std::vector.34" = type { %"struct.std::_Vector_base.35" }
%"struct.std::_Vector_base.35" = type { %"struct.std::_Vector_base<arrow::ArraySpan, std::allocator<arrow::ArraySpan>>::_Vector_impl" }
%"struct.std::_Vector_base<arrow::ArraySpan, std::allocator<arrow::ArraySpan>>::_Vector_impl" = type { %"struct.std::_Vector_base<arrow::ArraySpan, std::allocator<arrow::ArraySpan>>::_Vector_impl_data" }
%"struct.std::_Vector_base<arrow::ArraySpan, std::allocator<arrow::ArraySpan>>::_Vector_impl_data" = type { ptr, ptr, ptr }

; Function Attrs: mustprogress nounwind uwtable
define linkonce_odr void @_ZNSt15__new_allocatorIN5arrow9ArraySpanEEC2Ev(ptr noundef nonnull align 1 dereferenceable(1) %0) unnamed_addr #3 comdat align 2 {
  %2 = alloca ptr, align 8
  store ptr %0, ptr %2, align 8, !tbaa !375
  ret void
}

; Function Attrs: mustprogress nounwind uwtable
define linkonce_odr void @_ZNSt12_Vector_baseIN5arrow9ArraySpanESaIS1_EE17_Vector_impl_dataC2Ev(ptr noundef nonnull align 8 dereferenceable(24) %0) unnamed_addr #3 comdat align 2 {
  %2 = alloca ptr, align 8
  store ptr %0, ptr %2, align 8, !tbaa !372
  %3 = load ptr, ptr %2, align 8
  %4 = getelementptr inbounds nuw %"struct.std::_Vector_base<arrow::ArraySpan, std::allocator<arrow::ArraySpan>>::_Vector_impl_data", ptr %3, i32 0, i32 0
  store ptr null, ptr %4, align 8, !tbaa !192
  %5 = getelementptr inbounds nuw %"struct.std::_Vector_base<arrow::ArraySpan, std::allocator<arrow::ArraySpan>>::_Vector_impl_data", ptr %3, i32 0, i32 1
  store ptr null, ptr %5, align 8, !tbaa !304
  %6 = getelementptr inbounds nuw %"struct.std::_Vector_base<arrow::ArraySpan, std::allocator<arrow::ArraySpan>>::_Vector_impl_data", ptr %3, i32 0, i32 2
  store ptr null, ptr %6, align 8, !tbaa !374
  ret void
}

; Function Attrs: mustprogress nounwind uwtable
define linkonce_odr void @_ZNSaIN5arrow9ArraySpanEEC2Ev(ptr noundef nonnull align 1 dereferenceable(1) %0) unnamed_addr #3 comdat align 2 {
  %2 = alloca ptr, align 8
  store ptr %0, ptr %2, align 8, !tbaa !370
  %3 = load ptr, ptr %2, align 8
  call void @_ZNSt15__new_allocatorIN5arrow9ArraySpanEEC2Ev(ptr noundef nonnull align 1 dereferenceable(1) %3) #20
  ret void
}

; Function Attrs: mustprogress nounwind uwtable
define linkonce_odr void @_ZNSt12_Vector_baseIN5arrow9ArraySpanESaIS1_EE12_Vector_implC2Ev(ptr noundef nonnull align 8 dereferenceable(24) %0) unnamed_addr #3 comdat align 2 {
  %2 = alloca ptr, align 8
  store ptr %0, ptr %2, align 8, !tbaa !368
  %3 = load ptr, ptr %2, align 8
  call void @_ZNSaIN5arrow9ArraySpanEEC2Ev(ptr noundef nonnull align 1 dereferenceable(1) %3) #20
  call void @_ZNSt12_Vector_baseIN5arrow9ArraySpanESaIS1_EE17_Vector_impl_dataC2Ev(ptr noundef nonnull align 8 dereferenceable(24) %3) #20
  ret void
}

; Function Attrs: mustprogress nounwind uwtable
define linkonce_odr void @_ZNSt12_Vector_baseIN5arrow9ArraySpanESaIS1_EEC2Ev(ptr noundef nonnull align 8 dereferenceable(24) %0) unnamed_addr #3 comdat align 2 {
  %2 = alloca ptr, align 8
  store ptr %0, ptr %2, align 8, !tbaa !366
  %3 = load ptr, ptr %2, align 8
  %4 = getelementptr inbounds nuw %"struct.std::_Vector_base.35", ptr %3, i32 0, i32 0
  call void @_ZNSt12_Vector_baseIN5arrow9ArraySpanESaIS1_EE12_Vector_implC2Ev(ptr noundef nonnull align 8 dereferenceable(24) %4) #20
  ret void
}

; Function Attrs: mustprogress nounwind uwtable
define linkonce_odr void @_ZNSt6vectorIN5arrow9ArraySpanESaIS1_EEC2Ev(ptr noundef nonnull align 8 dereferenceable(24) %0) unnamed_addr #3 comdat align 2 {
  %2 = alloca ptr, align 8
  store ptr %0, ptr %2, align 8, !tbaa !190
  %3 = load ptr, ptr %2, align 8
  call void @_ZNSt12_Vector_baseIN5arrow9ArraySpanESaIS1_EEC2Ev(ptr noundef nonnull align 8 dereferenceable(24) %3) #20
  ret void
}

; Function Attrs: inlinehint mustprogress nounwind uwtable
define linkonce_odr void @_ZN5arrow10BufferSpanC2Ev(ptr noundef nonnull align 8 dereferenceable(24) %0) unnamed_addr #2 comdat align 2 {
  %2 = alloca ptr, align 8
  store ptr %0, ptr %2, align 8, !tbaa !289
  %3 = load ptr, ptr %2, align 8
  %4 = getelementptr inbounds nuw %"struct.arrow::BufferSpan", ptr %3, i32 0, i32 0
  store ptr null, ptr %4, align 8, !tbaa !92
  %5 = getelementptr inbounds nuw %"struct.arrow::BufferSpan", ptr %3, i32 0, i32 1
  store i64 0, ptr %5, align 8, !tbaa !96
  %6 = getelementptr inbounds nuw %"struct.arrow::BufferSpan", ptr %3, i32 0, i32 2
  store ptr null, ptr %6, align 8, !tbaa !97
  ret void
}

; Function Attrs: mustprogress uwtable
define linkonce_odr void @_ZN5arrow9ArraySpanC2ERKNS_9ArrayDataE(ptr noundef nonnull align 8 dereferenceable(128) %0, ptr noundef nonnull align 8 dereferenceable(120) %1) unnamed_addr #0 comdat align 2 personality ptr @__gxx_personality_v0 {
  %3 = alloca ptr, align 8
  %4 = alloca ptr, align 8
  %5 = alloca ptr, align 8
  %6 = alloca i32, align 4
  store ptr %0, ptr %3, align 8, !tbaa !81
  store ptr %1, ptr %4, align 8, !tbaa !3
  %7 = load ptr, ptr %3, align 8
  %8 = getelementptr inbounds nuw %"struct.arrow::ArraySpan", ptr %7, i32 0, i32 0
  store ptr null, ptr %8, align 8, !tbaa !83
  %9 = getelementptr inbounds nuw %"struct.arrow::ArraySpan", ptr %7, i32 0, i32 1
  store i64 0, ptr %9, align 8, !tbaa !89
  %10 = getelementptr inbounds nuw %"struct.arrow::ArraySpan", ptr %7, i32 0, i32 2
  store i64 -1, ptr %10, align 8, !tbaa !90
  %11 = getelementptr inbounds nuw %"struct.arrow::ArraySpan", ptr %7, i32 0, i32 3
  store i64 0, ptr %11, align 8, !tbaa !91
  %12 = getelementptr inbounds nuw %"struct.arrow::ArraySpan", ptr %7, i32 0, i32 4
  %13 = getelementptr inbounds [3 x %"struct.arrow::BufferSpan"], ptr %12, i32 0, i32 0
  %14 = getelementptr inbounds %"struct.arrow::BufferSpan", ptr %13, i64 3
  br label %15

15:                                               ; preds = %15, %2
  %16 = phi ptr [ %13, %2 ], [ %17, %15 ]
  call void @_ZN5arrow10BufferSpanC2Ev(ptr noundef nonnull align 8 dereferenceable(24) %16) #20
  %17 = getelementptr inbounds %"struct.arrow::BufferSpan", ptr %16, i64 1
  %18 = icmp eq ptr %17, %14
  br i1 %18, label %19, label %15

19:                                               ; preds = %15
  %20 = getelementptr inbounds nuw %"struct.arrow::ArraySpan", ptr %7, i32 0, i32 5
  call void @_ZNSt6vectorIN5arrow9ArraySpanESaIS1_EEC2Ev(ptr noundef nonnull align 8 dereferenceable(24) %20) #20
  %21 = load ptr, ptr %4, align 8, !tbaa !3
  invoke void @_ZN5arrow9ArraySpan10SetMembersERKNS_9ArrayDataE(ptr noundef nonnull align 8 dereferenceable(128) %7, ptr noundef nonnull align 8 dereferenceable(120) %21)
          to label %22 unwind label %23

22:                                               ; preds = %19
  ret void

23:                                               ; preds = %19
  %24 = landingpad { ptr, i32 }
          cleanup
  %25 = extractvalue { ptr, i32 } %24, 0
  store ptr %25, ptr %5, align 8
  %26 = extractvalue { ptr, i32 } %24, 1
  store i32 %26, ptr %6, align 4
  call void @_ZNSt6vectorIN5arrow9ArraySpanESaIS1_EED2Ev(ptr noundef nonnull align 8 dereferenceable(24) %20) #20
  br label %27

27:                                               ; preds = %23
  %28 = load ptr, ptr %5, align 8
  %29 = load i32, ptr %6, align 4
  %30 = insertvalue { ptr, i32 } poison, ptr %28, 0
  %31 = insertvalue { ptr, i32 } %30, i32 %29, 1
  resume { ptr, i32 } %31
}

; Function Attrs: mustprogress uwtable
define noundef zeroext i1 @_ZN5arrow8internal32RunEndEncodedMayHaveLogicalNullsERKNS_9ArrayDataE(ptr noundef nonnull align 8 dereferenceable(120) %0) #0 personality ptr @__gxx_personality_v0 {
  %2 = alloca ptr, align 8
  %3 = alloca %"struct.arrow::ArraySpan", align 8
  %4 = alloca ptr, align 8
  %5 = alloca i32, align 4
  store ptr %0, ptr %2, align 8, !tbaa !3
  call void @llvm.lifetime.start.p0(i64 128, ptr %3) #20
  %6 = load ptr, ptr %2, align 8, !tbaa !3
  call void @_ZN5arrow9ArraySpanC2ERKNS_9ArrayDataE(ptr noundef nonnull align 8 dereferenceable(128) %3, ptr noundef nonnull align 8 dereferenceable(120) %6)
  %7 = invoke noundef zeroext i1 @_ZNK5arrow9ArraySpan19MayHaveLogicalNullsEv(ptr noundef nonnull align 8 dereferenceable(128) %3)
          to label %8 unwind label %9

8:                                                ; preds = %1
  call void @_ZN5arrow9ArraySpanD2Ev(ptr noundef nonnull align 8 dereferenceable(128) %3) #20
  call void @llvm.lifetime.end.p0(i64 128, ptr %3) #20
  ret i1 %7

9:                                                ; preds = %1
  %10 = landingpad { ptr, i32 }
          cleanup
  %11 = extractvalue { ptr, i32 } %10, 0
  store ptr %11, ptr %4, align 8
  %12 = extractvalue { ptr, i32 } %10, 1
  store i32 %12, ptr %5, align 4
  call void @_ZN5arrow9ArraySpanD2Ev(ptr noundef nonnull align 8 dereferenceable(128) %3) #20
  call void @llvm.lifetime.end.p0(i64 128, ptr %3) #20
  br label %13

13:                                               ; preds = %9
  %14 = load ptr, ptr %4, align 8
  %15 = load i32, ptr %5, align 4
  %16 = insertvalue { ptr, i32 } poison, ptr %14, 0
  %17 = insertvalue { ptr, i32 } %16, i32 %15, 1
  resume { ptr, i32 } %17
}