; Function Attrs: mustprogress uwtable
define noundef zeroext i1 @_ZN5arrow8internal32RunEndEncodedMayHaveLogicalNullsERKNS_9ArrayDataE(ptr noundef nonnull readonly align 8 captures(none) dereferenceable(120) %0) local_unnamed_addr #0 personality ptr @__gxx_personality_v0 {
  %2 = alloca %"struct.arrow::ArraySpan", align 8
  call void @llvm.lifetime.start.p0(i64 128, ptr nonnull %2) #24
  %3 = getelementptr inbounds nuw i8, ptr %2, i64 16
  call void @llvm.memset.p0.i64(ptr noundef nonnull align 8 dereferenceable(128) %2, i8 0, i64 16, i1 false)
  store i64 -1, ptr %3, align 8, !tbaa !57
  %4 = getelementptr inbounds nuw i8, ptr %2, i64 24
  call void @llvm.memset.p0.i64(ptr noundef nonnull align 8 dereferenceable(104) %4, i8 0, i64 104, i1 false)
  invoke void @_ZN5arrow9ArraySpan10SetMembersERKNS_9ArrayDataE(ptr noundef nonnull align 8 dereferenceable(128) %2, ptr noundef nonnull align 8 dereferenceable(120) %0)
          to label %_ZN5arrow9ArraySpanC2ERKNS_9ArrayDataE.exit unwind label %5

common.resume:                                    ; preds = %24, %5
  %common.resume.op = phi { ptr, i32 } [ %6, %5 ], [ %25, %24 ]
  resume { ptr, i32 } %common.resume.op

5:                                                ; preds = %1
  %6 = landingpad { ptr, i32 }
          cleanup
  %7 = getelementptr inbounds nuw i8, ptr %2, i64 104
  call void @_ZNSt6vectorIN5arrow9ArraySpanESaIS1_EED2Ev(ptr noundef nonnull align 8 dereferenceable(24) %7) #24
  br label %common.resume

_ZN5arrow9ArraySpanC2ERKNS_9ArrayDataE.exit:      ; preds = %1
  %8 = invoke noundef zeroext i1 @_ZNK5arrow9ArraySpan19MayHaveLogicalNullsEv(ptr noundef nonnull align 8 dereferenceable(128) %2)
          to label %9 unwind label %24

9:                                                ; preds = %_ZN5arrow9ArraySpanC2ERKNS_9ArrayDataE.exit
  %10 = getelementptr inbounds nuw i8, ptr %2, i64 104
  %11 = load ptr, ptr %10, align 8, !tbaa !64
  %12 = getelementptr inbounds nuw i8, ptr %2, i64 112
  %13 = load ptr, ptr %12, align 8, !tbaa !66
  invoke void @_ZNSt12_Destroy_auxILb0EE9__destroyIPN5arrow9ArraySpanEEEvT_S5_(ptr noundef %11, ptr noundef %13)
          to label %_ZNSt6vectorIN5arrow9ArraySpanESaIS1_EED2Ev.exit.i unwind label %14

14:                                               ; preds = %9
  %15 = landingpad { ptr, i32 }
          catch ptr null
  %16 = extractvalue { ptr, i32 } %15, 0
  call void @__clang_call_terminate(ptr %16) #26
  unreachable

_ZNSt6vectorIN5arrow9ArraySpanESaIS1_EED2Ev.exit.i: ; preds = %9
  %17 = load ptr, ptr %10, align 8, !tbaa !64
  %.not.i.i.i = icmp eq ptr %17, null
  br i1 %.not.i.i.i, label %_ZN5arrow9ArraySpanD2Ev.exit, label %18

18:                                               ; preds = %_ZNSt6vectorIN5arrow9ArraySpanESaIS1_EED2Ev.exit.i
  %19 = getelementptr inbounds nuw i8, ptr %2, i64 120
  %20 = load ptr, ptr %19, align 8, !tbaa !67
  %21 = ptrtoint ptr %20 to i64
  %22 = ptrtoint ptr %17 to i64
  %23 = sub i64 %21, %22
  call void @_ZdlPvm(ptr noundef nonnull %17, i64 noundef %23) #27
  br label %_ZN5arrow9ArraySpanD2Ev.exit

_ZN5arrow9ArraySpanD2Ev.exit:                     ; preds = %_ZNSt6vectorIN5arrow9ArraySpanESaIS1_EED2Ev.exit.i, %18
  call void @llvm.lifetime.end.p0(i64 128, ptr nonnull %2) #24
  ret i1 %8

24:                                               ; preds = %_ZN5arrow9ArraySpanC2ERKNS_9ArrayDataE.exit
  %25 = landingpad { ptr, i32 }
          cleanup
  call void @_ZN5arrow9ArraySpanD2Ev(ptr noundef nonnull align 8 dereferenceable(128) %2) #24
  call void @llvm.lifetime.end.p0(i64 128, ptr nonnull %2) #24
  br label %common.resume
}